; Function Attrs: mustprogress uwtable
define void @_ZN6casadi10NlImporter9O_segmentEv(ptr noundef nonnull align 8 dereferenceable(672) %0) local_unnamed_addr #3 align 2 personality ptr @__gxx_personality_v0 {
  %2 = alloca %"class.casadi::MX", align 8
  %3 = alloca i32, align 4
  %4 = alloca i32, align 4
  %5 = alloca %"class.casadi::MX", align 8
  %6 = alloca %"class.casadi::MX", align 8
  call void @llvm.lifetime.start.p0(i64 4, ptr nonnull %4)
  %7 = getelementptr inbounds i8, ptr %0, i64 9
  %8 = load i8, ptr %7, align 1
  %9 = and i8 %8, 1
  %.not.i = icmp eq i8 %9, 0
  %10 = getelementptr inbounds i8, ptr %0, i64 16
  br i1 %.not.i, label %13, label %11

11:                                               ; preds = %1
  %12 = call noundef nonnull align 8 dereferenceable(16) ptr @_ZNSi4readEPcl(ptr noundef nonnull align 8 dereferenceable(16) %10, ptr noundef nonnull %4, i64 noundef 4)
  br label %_ZN6casadi10NlImporter8read_intEv.exit

13:                                               ; preds = %1
  %14 = call noundef nonnull align 8 dereferenceable(16) ptr @_ZNSirsERi(ptr noundef nonnull align 8 dereferenceable(16) %10, ptr noundef nonnull align 4 dereferenceable(4) %4)
  br label %_ZN6casadi10NlImporter8read_intEv.exit

_ZN6casadi10NlImporter8read_intEv.exit:           ; preds = %11, %13
  call void @llvm.lifetime.end.p0(i64 4, ptr nonnull %4)
  call void @llvm.lifetime.start.p0(i64 4, ptr nonnull %3)
  %15 = load i8, ptr %7, align 1
  %16 = and i8 %15, 1
  %.not.i5 = icmp eq i8 %16, 0
  br i1 %.not.i5, label %19, label %17

17:                                               ; preds = %_ZN6casadi10NlImporter8read_intEv.exit
  %18 = call noundef nonnull align 8 dereferenceable(16) ptr @_ZNSi4readEPcl(ptr noundef nonnull align 8 dereferenceable(16) %10, ptr noundef nonnull %3, i64 noundef 4)
  br label %_ZN6casadi10NlImporter8read_intEv.exit6

19:                                               ; preds = %_ZN6casadi10NlImporter8read_intEv.exit
  %20 = call noundef nonnull align 8 dereferenceable(16) ptr @_ZNSirsERi(ptr noundef nonnull align 8 dereferenceable(16) %10, ptr noundef nonnull align 4 dereferenceable(4) %3)
  br label %_ZN6casadi10NlImporter8read_intEv.exit6

_ZN6casadi10NlImporter8read_intEv.exit6:          ; preds = %17, %19
  %21 = load i32, ptr %3, align 4
  call void @llvm.lifetime.end.p0(i64 4, ptr nonnull %3)
  %.not = icmp eq i32 %21, 0
  %22 = select i1 %.not, i32 1, i32 -1
  %23 = sitofp i32 %22 to double
  call void @_ZN6casadi2MXC1Ed(ptr noundef nonnull align 8 dereferenceable(8) %5, double noundef %23)
  %24 = getelementptr inbounds i8, ptr %0, i64 664
  %25 = invoke noundef nonnull align 8 dereferenceable(8) ptr @_ZN6casadi12SharedObjectaSERKS0_(ptr noundef nonnull align 8 dereferenceable(8) %24, ptr noundef nonnull align 8 dereferenceable(8) %5)
          to label %_ZN6casadi2MXaSERKS0_.exit unwind label %32

_ZN6casadi2MXaSERKS0_.exit:                       ; preds = %_ZN6casadi10NlImporter8read_intEv.exit6
  call void @_ZN6casadi2MXD1Ev(ptr noundef nonnull align 8 dereferenceable(8) %5) #19
  call void @_ZN6casadi10NlImporter4exprEv(ptr dead_on_unwind nonnull writable sret(%"class.casadi::MX") align 8 %6, ptr noundef nonnull align 8 dereferenceable(672) %0)
  %26 = load ptr, ptr %0, align 8
  %27 = getelementptr inbounds i8, ptr %26, i64 24
  call void @llvm.lifetime.start.p0(i64 8, ptr nonnull %2)
  invoke void @_ZN6casadi2MX6binaryExRKS0_S2_(ptr dead_on_unwind nonnull writable sret(%"class.casadi::MX") align 8 %2, i64 noundef 1, ptr noundef nonnull align 8 dereferenceable(8) %27, ptr noundef nonnull align 8 dereferenceable(8) %6)
          to label %.noexc unwind label %34

.noexc:                                           ; preds = %_ZN6casadi2MXaSERKS0_.exit
  %28 = invoke noundef nonnull align 8 dereferenceable(8) ptr @_ZN6casadi12SharedObjectaSERKS0_(ptr noundef nonnull align 8 dereferenceable(8) %27, ptr noundef nonnull align 8 dereferenceable(8) %2)
          to label %31 unwind label %29

29:                                               ; preds = %.noexc
  %30 = landingpad { ptr, i32 }
          cleanup
  call void @_ZN6casadi2MXD1Ev(ptr noundef nonnull align 8 dereferenceable(8) %2) #19
  br label %.body

31:                                               ; preds = %.noexc
  call void @_ZN6casadi2MXD1Ev(ptr noundef nonnull align 8 dereferenceable(8) %2) #19
  call void @llvm.lifetime.end.p0(i64 8, ptr nonnull %2)
  call void @_ZN6casadi2MXD1Ev(ptr noundef nonnull align 8 dereferenceable(8) %6) #19
  ret void

32:                                               ; preds = %_ZN6casadi10NlImporter8read_intEv.exit6
  %33 = landingpad { ptr, i32 }
          cleanup
  br label %.body

34:                                               ; preds = %_ZN6casadi2MXaSERKS0_.exit
  %35 = landingpad { ptr, i32 }
          cleanup
  br label %.body

.body:                                            ; preds = %34, %29, %32
  %.sink = phi ptr [ %5, %32 ], [ %6, %29 ], [ %6, %34 ]
  %.pn = phi { ptr, i32 } [ %33, %32 ], [ %30, %29 ], [ %35, %34 ]
  call void @_ZN6casadi2MXD1Ev(ptr noundef nonnull align 8 dereferenceable(8) %.sink) #19
  resume { ptr, i32 } %.pn
}